; Function Attrs: nounwind uwtable
define internal range(i32 -1, 1) i32 @gcmodule_exec(ptr noundef %0) #0 {
  %2 = tail call align 8 ptr @llvm.threadlocal.address.p0(ptr align 8 @_Py_tss_tstate)
  %3 = load ptr, ptr %2, align 8, !tbaa !4
  %4 = getelementptr inbounds nuw i8, ptr %3, i64 16
  %5 = load ptr, ptr %4, align 8, !tbaa !9
  %6 = getelementptr inbounds nuw i8, ptr %5, i64 7600
  %7 = load ptr, ptr %6, align 8, !tbaa !55
  %8 = tail call i32 @PyModule_AddObjectRef(ptr noundef %0, ptr noundef nonnull @.str.39, ptr noundef %7) #5
  %9 = icmp slt i32 %8, 0
  br i1 %9, label %29, label %10

10:                                               ; preds = %1
  %11 = getelementptr inbounds nuw i8, ptr %5, i64 7608
  %12 = load ptr, ptr %11, align 8, !tbaa !56
  %13 = tail call i32 @PyModule_AddObjectRef(ptr noundef %0, ptr noundef nonnull @.str.40, ptr noundef %12) #5
  %14 = icmp slt i32 %13, 0
  br i1 %14, label %29, label %15

15:                                               ; preds = %10
  %16 = tail call i32 @PyModule_AddIntConstant(ptr noundef %0, ptr noundef nonnull @.str.41, i64 noundef 1) #5
  %17 = icmp slt i32 %16, 0
  br i1 %17, label %29, label %18

18:                                               ; preds = %15
  %19 = tail call i32 @PyModule_AddIntConstant(ptr noundef %0, ptr noundef nonnull @.str.42, i64 noundef 2) #5
  %20 = icmp slt i32 %19, 0
  br i1 %20, label %29, label %21

21:                                               ; preds = %18
  %22 = tail call i32 @PyModule_AddIntConstant(ptr noundef %0, ptr noundef nonnull @.str.43, i64 noundef 4) #5
  %23 = icmp slt i32 %22, 0
  br i1 %23, label %29, label %24

24:                                               ; preds = %21
  %25 = tail call i32 @PyModule_AddIntConstant(ptr noundef %0, ptr noundef nonnull @.str.44, i64 noundef 32) #5
  %26 = icmp slt i32 %25, 0
  br i1 %26, label %29, label %27

27:                                               ; preds = %24
  %28 = tail call i32 @PyModule_AddIntConstant(ptr noundef %0, ptr noundef nonnull @.str.45, i64 noundef 38) #5
  %.lobit = ashr i32 %28, 31
  br label %29

29:                                               ; preds = %27, %24, %21, %18, %15, %10, %1
  %.0 = phi i32 [ -1, %1 ], [ -1, %10 ], [ -1, %15 ], [ -1, %18 ], [ -1, %21 ], [ -1, %24 ], [ %.lobit, %27 ]
  ret i32 %.0
}